; Function Attrs: nounwind uwtable
define dso_local i32 @LZ4_compress_HC_destSize(ptr noundef %0, ptr noundef %1, ptr noundef %2, ptr noundef captures(none) %3, i32 noundef %4, i32 noundef %5) local_unnamed_addr #4 {
  %7 = icmp ne ptr %0, null
  %8 = ptrtoint ptr %0 to i64
  %9 = and i64 %8, 7
  %.not.i = icmp eq i64 %9, 0
  %or.cond10.i = and i1 %7, %.not.i
  br i1 %or.cond10.i, label %LZ4HC_init_internal.exit, label %LZ4_initStreamHC.exit.thread

LZ4HC_init_internal.exit:                         ; preds = %6
  tail call void @llvm.memset.p0.i64(ptr noundef nonnull align 8 dereferenceable(262192) %0, i8 0, i64 262192, i1 false)
  %10 = getelementptr inbounds nuw i8, ptr %0, i64 262180
  %11 = getelementptr inbounds nuw i8, ptr %0, i64 262168
  %12 = getelementptr inbounds nuw i8, ptr %0, i64 262152
  %13 = getelementptr inbounds nuw i8, ptr %0, i64 262144
  %14 = getelementptr inbounds nuw i8, ptr %0, i64 262176
  store i32 65536, ptr %14, align 8, !tbaa !33
  store ptr %1, ptr %12, align 8, !tbaa !13
  store ptr %1, ptr %13, align 8, !tbaa !4
  %15 = getelementptr inbounds nuw i8, ptr %0, i64 262160
  store ptr %1, ptr %15, align 8, !tbaa !34
  store i32 65536, ptr %11, align 8, !tbaa !14
  %16 = getelementptr inbounds nuw i8, ptr %0, i64 262172
  store i32 65536, ptr %16, align 4, !tbaa !35
  %17 = icmp slt i32 %5, 1
  %18 = tail call i32 @llvm.umin.i32(i32 %5, i32 12)
  %19 = trunc nuw nsw i32 %18 to i16
  %20 = select i1 %17, i16 9, i16 %19
  store i16 %20, ptr %10, align 4, !tbaa !26
  %21 = tail call fastcc i32 @LZ4HC_compress_generic(ptr noundef nonnull %0, ptr noundef %1, ptr noundef %2, ptr noundef %3, i32 noundef %4, i32 noundef %5, i32 noundef 2)
  br label %LZ4_initStreamHC.exit.thread

LZ4_initStreamHC.exit.thread:                     ; preds = %6, %LZ4HC_init_internal.exit
  %.0 = phi i32 [ %21, %LZ4HC_init_internal.exit ], [ 0, %6 ]
  ret i32 %.0
}